target datalayout = "e-m:e-p270:32:32-p271:32:32-p272:64:64-i64:64-i128:128-f80:128-n8:16:32:64-S128"
target triple = "x86_64-pc-linux-gnu"

%class.StubAssembler = type { %class.C1_MacroAssembler.base, ptr, i8, i32, i32, i32 }
%class.C1_MacroAssembler.base = type <{ %class.MacroAssembler, i32 }>
%class.MacroAssembler = type { %class.Assembler }
%class.Assembler = type { %class.AbstractAssembler, i8, i8, i8, i8, ptr }
%class.AbstractAssembler = type { ptr, ptr, ptr }
%class.C1_MacroAssembler = type <{ %class.MacroAssembler, i32, [4 x i8] }>

@_ZTV14MacroAssembler = external unnamed_addr constant { [7 x ptr] }, align 8
@_ZTV9Assembler = linkonce_odr hidden unnamed_addr constant { [3 x ptr] } { [3 x ptr] [ptr null, ptr null, ptr @__cxa_pure_virtual] }, comdat, align 8

; Function Attrs: mustprogress nounwind uwtable
define linkonce_odr hidden void @_ZN9AssemblerC2EP10CodeBuffer(ptr noundef nonnull align 8 dereferenceable(40) %0, ptr noundef %1) unnamed_addr #1 comdat align 2 {
  %3 = alloca ptr, align 8
  %4 = alloca ptr, align 8
  store ptr %0, ptr %3, align 8
  store ptr %1, ptr %4, align 8
  %5 = load ptr, ptr %3, align 8
  %6 = load ptr, ptr %4, align 8
  call void @_ZN17AbstractAssemblerC2EP10CodeBuffer(ptr noundef nonnull align 8 dereferenceable(24) %5, ptr noundef %6)
  store ptr getelementptr inbounds inrange(-16, 8) ({ [3 x ptr] }, ptr @_ZTV9Assembler, i32 0, i32 0, i32 2), ptr %5, align 8
  call void @_ZN9Assembler15init_attributesEv(ptr noundef nonnull align 8 dereferenceable(40) %5)
  ret void
}

; Function Attrs: mustprogress nounwind uwtable
define linkonce_odr hidden void @_ZN17C1_MacroAssembler7pd_initEv(ptr noundef nonnull align 8 dereferenceable(44) %0) #1 comdat align 2 {
  %2 = alloca ptr, align 8
  store ptr %0, ptr %2, align 8
  %3 = load ptr, ptr %2, align 8
  %4 = getelementptr inbounds %class.C1_MacroAssembler, ptr %3, i32 0, i32 1
  store i32 0, ptr %4, align 8
  ret void
}

; Function Attrs: mustprogress nounwind uwtable
define linkonce_odr hidden void @_ZN14MacroAssemblerC2EP10CodeBuffer(ptr noundef nonnull align 8 dereferenceable(40) %0, ptr noundef %1) unnamed_addr #1 comdat align 2 {
  %3 = alloca ptr, align 8
  %4 = alloca ptr, align 8
  store ptr %0, ptr %3, align 8
  store ptr %1, ptr %4, align 8
  %5 = load ptr, ptr %3, align 8
  %6 = load ptr, ptr %4, align 8
  call void @_ZN9AssemblerC2EP10CodeBuffer(ptr noundef nonnull align 8 dereferenceable(40) %5, ptr noundef %6)
  store ptr getelementptr inbounds inrange(-16, 40) ({ [7 x ptr] }, ptr @_ZTV14MacroAssembler, i32 0, i32 0, i32 2), ptr %5, align 8
  ret void
}

; Function Attrs: mustprogress nounwind uwtable
define linkonce_odr hidden void @_ZN17C1_MacroAssemblerC2EP10CodeBuffer(ptr noundef nonnull align 8 dereferenceable(44) %0, ptr noundef %1) unnamed_addr #1 comdat align 2 {
  %3 = alloca ptr, align 8
  %4 = alloca ptr, align 8
  store ptr %0, ptr %3, align 8
  store ptr %1, ptr %4, align 8
  %5 = load ptr, ptr %3, align 8
  %6 = load ptr, ptr %4, align 8
  call void @_ZN14MacroAssemblerC2EP10CodeBuffer(ptr noundef nonnull align 8 dereferenceable(40) %5, ptr noundef %6)
  store ptr getelementptr inbounds inrange(-16, 40) ({ [7 x ptr] }, ptr @_ZTV17C1_MacroAssembler, i32 0, i32 0, i32 2), ptr %5, align 8
  call void @_ZN17C1_MacroAssembler7pd_initEv(ptr noundef nonnull align 8 dereferenceable(44) %5)
  ret void
}

; Function Attrs: mustprogress nounwind uwtable
define hidden void @_ZN13StubAssemblerC2EP10CodeBufferPKci(ptr noundef nonnull align 8 dereferenceable(72) %0, ptr noundef %1, ptr noundef %2, i32 noundef %3) unnamed_addr #1 align 2 {
  %5 = alloca ptr, align 8
  %6 = alloca ptr, align 8
  %7 = alloca ptr, align 8
  %8 = alloca i32, align 4
  store ptr %0, ptr %5, align 8
  store ptr %1, ptr %6, align 8
  store ptr %2, ptr %7, align 8
  store i32 %3, ptr %8, align 4
  %9 = load ptr, ptr %5, align 8
  %10 = load ptr, ptr %6, align 8
  call void @_ZN17C1_MacroAssemblerC2EP10CodeBuffer(ptr noundef nonnull align 8 dereferenceable(44) %9, ptr noundef %10)
  store ptr getelementptr inbounds inrange(-16, 40) ({ [7 x ptr] }, ptr @_ZTV13StubAssembler, i32 0, i32 0, i32 2), ptr %9, align 8
  %11 = load ptr, ptr %7, align 8
  %12 = getelementptr inbounds %class.StubAssembler, ptr %9, i32 0, i32 1
  store ptr %11, ptr %12, align 8
  %13 = getelementptr inbounds %class.StubAssembler, ptr %9, i32 0, i32 2
  store i8 0, ptr %13, align 8
  %14 = getelementptr inbounds %class.StubAssembler, ptr %9, i32 0, i32 3
  store i32 -1, ptr %14, align 4
  %15 = getelementptr inbounds %class.StubAssembler, ptr %9, i32 0, i32 4
  store i32 0, ptr %15, align 8
  %16 = load i32, ptr %8, align 4
  %17 = getelementptr inbounds %class.StubAssembler, ptr %9, i32 0, i32 5
  store i32 %16, ptr %17, align 4
  ret void
}