; Function Attrs: mustprogress nounwind uwtable
define hidden void @_ZN13StubAssemblerC2EP10CodeBufferPKci(ptr noundef nonnull align 8 dereferenceable(72) %0, ptr noundef %1, ptr noundef %2, i32 noundef %3) unnamed_addr #0 align 2 {
  tail call void @_ZN17AbstractAssemblerC2EP10CodeBuffer(ptr noundef nonnull align 8 dereferenceable(24) %0, ptr noundef %1) #14
  store ptr getelementptr inbounds inrange(-16, 8) (i8, ptr @_ZTV9Assembler, i64 16), ptr %0, align 8
  tail call void @_ZN9Assembler15init_attributesEv(ptr noundef nonnull align 8 dereferenceable(40) %0) #14
  %5 = getelementptr inbounds i8, ptr %0, i64 40
  store i32 0, ptr %5, align 8
  store ptr getelementptr inbounds inrange(-16, 40) (i8, ptr @_ZTV13StubAssembler, i64 16), ptr %0, align 8
  %6 = getelementptr inbounds i8, ptr %0, i64 48
  store ptr %2, ptr %6, align 8
  %7 = getelementptr inbounds i8, ptr %0, i64 56
  store i8 0, ptr %7, align 8
  %8 = getelementptr inbounds i8, ptr %0, i64 60
  store i32 -1, ptr %8, align 4
  %9 = getelementptr inbounds i8, ptr %0, i64 64
  store i32 0, ptr %9, align 8
  %10 = getelementptr inbounds i8, ptr %0, i64 68
  store i32 %3, ptr %10, align 4
  ret void
}